target datalayout = "e-m:e-p270:32:32-p271:32:32-p272:64:64-i64:64-i128:128-f80:128-n8:16:32:64-S128"
target triple = "x86_64-pc-linux-gnu"

%class.xmlStream = type { %class.outputStream, ptr, i64, i32, ptr, %class.xmlTextStream }
%class.outputStream = type { ptr, i32, i8, i32, i64, %class.TimeStamp, ptr, i64 }
%class.TimeStamp = type { i64 }
%class.xmlTextStream = type { %class.outputStream, ptr }

@.str.8 = private unnamed_addr constant [2 x i8] c"<\00", align 1
@.str.10 = private unnamed_addr constant [3 x i8] c">\0A\00", align 1

; Function Attrs: mustprogress nounwind uwtable
define linkonce_odr hidden void @_ZN12outputStream9print_rawEPKc(ptr noundef nonnull align 8 dereferenceable(56) %0, ptr noundef %1) #1 comdat align 2 {
  %3 = alloca ptr, align 8
  %4 = alloca ptr, align 8
  store ptr %0, ptr %3, align 8
  store ptr %1, ptr %4, align 8
  %5 = load ptr, ptr %3, align 8
  %6 = load ptr, ptr %4, align 8
  %7 = load ptr, ptr %4, align 8
  %8 = call i64 @strlen(ptr noundef %7) #8
  call void @_ZN12outputStream9print_rawEPKcm(ptr noundef nonnull align 8 dereferenceable(56) %5, ptr noundef %6, i64 noundef %8)
  ret void
}

; Function Attrs: mustprogress nounwind uwtable
define hidden void @_ZN9xmlStream6va_tagEbPKcP13__va_list_tag(ptr noundef nonnull align 8 dereferenceable(152) %0, i1 noundef zeroext %1, ptr noundef %2, ptr noundef %3) #1 align 2 {
  %5 = alloca ptr, align 8
  %6 = alloca i8, align 1
  %7 = alloca ptr, align 8
  %8 = alloca ptr, align 8
  %9 = alloca [2048 x i8], align 16
  %10 = alloca i64, align 8
  %11 = alloca ptr, align 8
  store ptr %0, ptr %5, align 8
  %12 = zext i1 %1 to i8
  store i8 %12, ptr %6, align 1
  store ptr %2, ptr %7, align 8
  store ptr %3, ptr %8, align 8
  %13 = load ptr, ptr %5, align 8
  %14 = getelementptr inbounds [2048 x i8], ptr %9, i64 0, i64 0
  %15 = load ptr, ptr %7, align 8
  %16 = load ptr, ptr %8, align 8
  %17 = call noundef ptr @_ZN12outputStream12do_vsnprintfEPcmPKcP13__va_list_tagbRm(ptr noundef %14, i64 noundef 2048, ptr noundef %15, ptr noundef %16, i1 noundef zeroext false, ptr noundef nonnull align 8 dereferenceable(8) %10)
  store ptr %17, ptr %11, align 8
  %18 = load ptr, ptr %11, align 8
  %19 = load i8, ptr %6, align 1
  %20 = trunc i8 %19 to i1
  %21 = load ptr, ptr %13, align 8
  %22 = getelementptr inbounds ptr, ptr %21, i64 5
  %23 = load ptr, ptr %22, align 8
  call void %23(ptr noundef nonnull align 8 dereferenceable(152) %13, ptr noundef %18, i1 noundef zeroext %20)
  call void @_ZN12outputStream9print_rawEPKc(ptr noundef nonnull align 8 dereferenceable(56) %13, ptr noundef @.str.8)
  %24 = load ptr, ptr %11, align 8
  %25 = load i64, ptr %10, align 8
  %26 = load ptr, ptr %13, align 8
  %27 = getelementptr inbounds ptr, ptr %26, i64 1
  %28 = load ptr, ptr %27, align 8
  call void %28(ptr noundef nonnull align 8 dereferenceable(152) %13, ptr noundef %24, i64 noundef %25)
  %29 = load i8, ptr %6, align 1
  %30 = trunc i8 %29 to i1
  %31 = select i1 %30, i32 1, i32 2
  %32 = getelementptr inbounds %class.xmlStream, ptr %13, i32 0, i32 3
  store i32 %31, ptr %32, align 8
  ret void
}

; Function Attrs: mustprogress nounwind uwtable
define hidden void @_ZN9xmlStream8end_headEv(ptr noundef nonnull align 8 dereferenceable(152) %0) #1 align 2 {
  %2 = alloca ptr, align 8
  store ptr %0, ptr %2, align 8
  %3 = load ptr, ptr %2, align 8
  call void @_ZN12outputStream9print_rawEPKc(ptr noundef nonnull align 8 dereferenceable(56) %3, ptr noundef @.str.10)
  %4 = getelementptr inbounds %class.xmlStream, ptr %3, i32 0, i32 3
  store i32 0, ptr %4, align 8
  ret void
}

; Function Attrs: mustprogress nounwind uwtable
define hidden void @_ZN9xmlStream13va_begin_headEPKcP13__va_list_tag(ptr noundef nonnull align 8 dereferenceable(152) %0, ptr noundef %1, ptr noundef %2) #1 align 2 {
  %4 = alloca ptr, align 8
  %5 = alloca ptr, align 8
  %6 = alloca ptr, align 8
  store ptr %0, ptr %4, align 8
  store ptr %1, ptr %5, align 8
  store ptr %2, ptr %6, align 8
  %7 = load ptr, ptr %4, align 8
  %8 = load ptr, ptr %5, align 8
  %9 = load ptr, ptr %6, align 8
  call void @_ZN9xmlStream6va_tagEbPKcP13__va_list_tag(ptr noundef nonnull align 8 dereferenceable(152) %7, i1 noundef zeroext true, ptr noundef %8, ptr noundef %9)
  ret void
}

; Function Attrs: mustprogress nounwind uwtable
define hidden void @_ZN9xmlStream7va_headEPKcP13__va_list_tag(ptr noundef nonnull align 8 dereferenceable(152) %0, ptr noundef %1, ptr noundef %2) #1 align 2 {
  %4 = alloca ptr, align 8
  %5 = alloca ptr, align 8
  %6 = alloca ptr, align 8
  store ptr %0, ptr %4, align 8
  store ptr %1, ptr %5, align 8
  store ptr %2, ptr %6, align 8
  %7 = load ptr, ptr %4, align 8
  %8 = load ptr, ptr %5, align 8
  %9 = load ptr, ptr %6, align 8
  call void @_ZN9xmlStream13va_begin_headEPKcP13__va_list_tag(ptr noundef nonnull align 8 dereferenceable(152) %7, ptr noundef %8, ptr noundef %9)
  call void @_ZN9xmlStream8end_headEv(ptr noundef nonnull align 8 dereferenceable(152) %7)
  ret void
}